target datalayout = "e-m:e-p270:32:32-p271:32:32-p272:64:64-i64:64-i128:128-f80:128-n8:16:32:64-S128"
target triple = "x86_64-pc-linux-gnu"

%"class.std::vector.1131" = type { %"struct.std::_Vector_base.1132" }
%"struct.std::_Vector_base.1132" = type { %"struct.std::_Vector_base<cmDocumentationEntry, std::allocator<cmDocumentationEntry>>::_Vector_impl" }
%"struct.std::_Vector_base<cmDocumentationEntry, std::allocator<cmDocumentationEntry>>::_Vector_impl" = type { %"struct.std::_Vector_base<cmDocumentationEntry, std::allocator<cmDocumentationEntry>>::_Vector_impl_data" }
%"struct.std::_Vector_base<cmDocumentationEntry, std::allocator<cmDocumentationEntry>>::_Vector_impl_data" = type { ptr, ptr, ptr }

; Function Attrs: mustprogress nounwind uwtable
define linkonce_odr dso_local void @_ZNSt15__new_allocatorI20cmDocumentationEntryEC2Ev(ptr noundef nonnull align 1 dereferenceable(1) %0) unnamed_addr #5 comdat align 2 {
  %2 = alloca ptr, align 8
  store ptr %0, ptr %2, align 8
  ret void
}

; Function Attrs: mustprogress nounwind uwtable
define linkonce_odr dso_local void @_ZNSt12_Vector_baseI20cmDocumentationEntrySaIS0_EE17_Vector_impl_dataC2Ev(ptr noundef nonnull align 8 dereferenceable(24) %0) unnamed_addr #5 comdat align 2 {
  %2 = alloca ptr, align 8
  store ptr %0, ptr %2, align 8
  %3 = load ptr, ptr %2, align 8
  %4 = getelementptr inbounds %"struct.std::_Vector_base<cmDocumentationEntry, std::allocator<cmDocumentationEntry>>::_Vector_impl_data", ptr %3, i32 0, i32 0
  store ptr null, ptr %4, align 8
  %5 = getelementptr inbounds %"struct.std::_Vector_base<cmDocumentationEntry, std::allocator<cmDocumentationEntry>>::_Vector_impl_data", ptr %3, i32 0, i32 1
  store ptr null, ptr %5, align 8
  %6 = getelementptr inbounds %"struct.std::_Vector_base<cmDocumentationEntry, std::allocator<cmDocumentationEntry>>::_Vector_impl_data", ptr %3, i32 0, i32 2
  store ptr null, ptr %6, align 8
  ret void
}

; Function Attrs: mustprogress nounwind uwtable
define linkonce_odr dso_local void @_ZNSaI20cmDocumentationEntryEC2Ev(ptr noundef nonnull align 1 dereferenceable(1) %0) unnamed_addr #5 comdat align 2 {
  %2 = alloca ptr, align 8
  store ptr %0, ptr %2, align 8
  %3 = load ptr, ptr %2, align 8
  call void @_ZNSt15__new_allocatorI20cmDocumentationEntryEC2Ev(ptr noundef nonnull align 1 dereferenceable(1) %3) #3
  ret void
}

; Function Attrs: mustprogress nounwind uwtable
define linkonce_odr dso_local void @_ZNSt12_Vector_baseI20cmDocumentationEntrySaIS0_EE12_Vector_implC2Ev(ptr noundef nonnull align 8 dereferenceable(24) %0) unnamed_addr #5 comdat align 2 {
  %2 = alloca ptr, align 8
  store ptr %0, ptr %2, align 8
  %3 = load ptr, ptr %2, align 8
  call void @_ZNSaI20cmDocumentationEntryEC2Ev(ptr noundef nonnull align 1 dereferenceable(1) %3) #3
  call void @_ZNSt12_Vector_baseI20cmDocumentationEntrySaIS0_EE17_Vector_impl_dataC2Ev(ptr noundef nonnull align 8 dereferenceable(24) %3) #3
  ret void
}

; Function Attrs: mustprogress nounwind uwtable
define linkonce_odr dso_local void @_ZNSt12_Vector_baseI20cmDocumentationEntrySaIS0_EEC2Ev(ptr noundef nonnull align 8 dereferenceable(24) %0) unnamed_addr #5 comdat align 2 {
  %2 = alloca ptr, align 8
  store ptr %0, ptr %2, align 8
  %3 = load ptr, ptr %2, align 8
  %4 = getelementptr inbounds %"struct.std::_Vector_base.1132", ptr %3, i32 0, i32 0
  call void @_ZNSt12_Vector_baseI20cmDocumentationEntrySaIS0_EE12_Vector_implC2Ev(ptr noundef nonnull align 8 dereferenceable(24) %4) #3
  ret void
}

; Function Attrs: mustprogress nounwind uwtable
define linkonce_odr dso_local void @_ZNSt6vectorI20cmDocumentationEntrySaIS0_EEC2Ev(ptr noundef nonnull align 8 dereferenceable(24) %0) unnamed_addr #5 comdat align 2 {
  %2 = alloca ptr, align 8
  store ptr %0, ptr %2, align 8
  %3 = load ptr, ptr %2, align 8
  call void @_ZNSt12_Vector_baseI20cmDocumentationEntrySaIS0_EEC2Ev(ptr noundef nonnull align 8 dereferenceable(24) %3) #3
  ret void
}

; Function Attrs: mustprogress uwtable
define dso_local void @_ZN5cmake26GetGeneratorsDocumentationEv(ptr dead_on_unwind noalias writable sret(%"class.std::vector.1131") align 8 %0, ptr noundef nonnull align 8 dereferenceable(2216) %1) #4 align 2 personality ptr @__gxx_personality_v0 {
  %3 = alloca ptr, align 8
  %4 = alloca ptr, align 8
  %5 = alloca i1, align 1
  %6 = alloca ptr, align 8
  %7 = alloca i32, align 4
  store ptr %0, ptr %3, align 8
  store ptr %1, ptr %4, align 8
  %8 = load ptr, ptr %4, align 8
  store i1 false, ptr %5, align 1
  call void @_ZNSt6vectorI20cmDocumentationEntrySaIS0_EEC2Ev(ptr noundef nonnull align 8 dereferenceable(24) %0) #3
  invoke void @_ZN5cmake35AppendGlobalGeneratorsDocumentationERSt6vectorI20cmDocumentationEntrySaIS1_EE(ptr noundef nonnull align 8 dereferenceable(2216) %8, ptr noundef nonnull align 8 dereferenceable(24) %0)
          to label %9 unwind label %12

9:                                                ; preds = %2
  invoke void @_ZN5cmake34AppendExtraGeneratorsDocumentationERSt6vectorI20cmDocumentationEntrySaIS1_EE(ptr noundef nonnull align 8 dereferenceable(2216) %8, ptr noundef nonnull align 8 dereferenceable(24) %0)
          to label %10 unwind label %12

10:                                               ; preds = %9
  store i1 true, ptr %5, align 1
  %11 = load i1, ptr %5, align 1
  br i1 %11, label %17, label %16

12:                                               ; preds = %9, %2
  %13 = landingpad { ptr, i32 }
          cleanup
  %14 = extractvalue { ptr, i32 } %13, 0
  store ptr %14, ptr %6, align 8
  %15 = extractvalue { ptr, i32 } %13, 1
  store i32 %15, ptr %7, align 4
  call void @_ZNSt6vectorI20cmDocumentationEntrySaIS0_EED2Ev(ptr noundef nonnull align 8 dereferenceable(24) %0) #3
  br label %18

16:                                               ; preds = %10
  call void @_ZNSt6vectorI20cmDocumentationEntrySaIS0_EED2Ev(ptr noundef nonnull align 8 dereferenceable(24) %0) #3
  br label %17

17:                                               ; preds = %16, %10
  ret void

18:                                               ; preds = %12
  %19 = load ptr, ptr %6, align 8
  %20 = load i32, ptr %7, align 4
  %21 = insertvalue { ptr, i32 } poison, ptr %19, 0
  %22 = insertvalue { ptr, i32 } %21, i32 %20, 1
  resume { ptr, i32 } %22
}