; Function Attrs: mustprogress uwtable
define dso_local void @_ZN5cmake26GetGeneratorsDocumentationEv(ptr dead_on_unwind noalias nonnull writable sret(%"class.std::vector.1131") align 8 %0, ptr noundef nonnull align 8 dereferenceable(2216) %1) local_unnamed_addr #3 align 2 personality ptr @__gxx_personality_v0 {
  tail call void @llvm.memset.p0.i64(ptr noundef nonnull align 8 dereferenceable(24) %0, i8 0, i64 24, i1 false)
  invoke void @_ZN5cmake35AppendGlobalGeneratorsDocumentationERSt6vectorI20cmDocumentationEntrySaIS1_EE(ptr noundef nonnull align 8 dereferenceable(2216) %1, ptr noundef nonnull align 8 dereferenceable(24) %0)
          to label %3 unwind label %4

3:                                                ; preds = %2
  invoke void @_ZN5cmake34AppendExtraGeneratorsDocumentationERSt6vectorI20cmDocumentationEntrySaIS1_EE(ptr noundef nonnull align 8 dereferenceable(2216) %1, ptr noundef nonnull align 8 dereferenceable(24) %0)
          to label %6 unwind label %4

4:                                                ; preds = %3, %2
  %5 = landingpad { ptr, i32 }
          cleanup
  tail call void @_ZNSt6vectorI20cmDocumentationEntrySaIS0_EED2Ev(ptr noundef nonnull align 8 dereferenceable(24) %0) #30
  resume { ptr, i32 } %5

6:                                                ; preds = %3
  ret void
}